target datalayout = "e-m:e-p270:32:32-p271:32:32-p272:64:64-i64:64-i128:128-f80:128-n8:16:32:64-S128"
target triple = "x86_64-pc-linux-gnu"

%struct.JNINativeInterface_ = type { ptr, ptr, ptr, ptr, ptr, ptr, ptr, ptr, ptr, ptr, ptr, ptr, ptr, ptr, ptr, ptr, ptr, ptr, ptr, ptr, ptr, ptr, ptr, ptr, ptr, ptr, ptr, ptr, ptr, ptr, ptr, ptr, ptr, ptr, ptr, ptr, ptr, ptr, ptr, ptr, ptr, ptr, ptr, ptr, ptr, ptr, ptr, ptr, ptr, ptr, ptr, ptr, ptr, ptr, ptr, ptr, ptr, ptr, ptr, ptr, ptr, ptr, ptr, ptr, ptr, ptr, ptr, ptr, ptr, ptr, ptr, ptr, ptr, ptr, ptr, ptr, ptr, ptr, ptr, ptr, ptr, ptr, ptr, ptr, ptr, ptr, ptr, ptr, ptr, ptr, ptr, ptr, ptr, ptr, ptr, ptr, ptr, ptr, ptr, ptr, ptr, ptr, ptr, ptr, ptr, ptr, ptr, ptr, ptr, ptr, ptr, ptr, ptr, ptr, ptr, ptr, ptr, ptr, ptr, ptr, ptr, ptr, ptr, ptr, ptr, ptr, ptr, ptr, ptr, ptr, ptr, ptr, ptr, ptr, ptr, ptr, ptr, ptr, ptr, ptr, ptr, ptr, ptr, ptr, ptr, ptr, ptr, ptr, ptr, ptr, ptr, ptr, ptr, ptr, ptr, ptr, ptr, ptr, ptr, ptr, ptr, ptr, ptr, ptr, ptr, ptr, ptr, ptr, ptr, ptr, ptr, ptr, ptr, ptr, ptr, ptr, ptr, ptr, ptr, ptr, ptr, ptr, ptr, ptr, ptr, ptr, ptr, ptr, ptr, ptr, ptr, ptr, ptr, ptr, ptr, ptr, ptr, ptr, ptr, ptr, ptr, ptr, ptr, ptr, ptr, ptr, ptr, ptr, ptr, ptr, ptr, ptr, ptr, ptr, ptr, ptr, ptr, ptr, ptr, ptr, ptr, ptr, ptr, ptr, ptr, ptr, ptr, ptr, ptr, ptr, ptr, ptr, ptr, ptr, ptr }

@my_copy_file_range_func = internal global ptr null, align 8
@.str.7 = private unnamed_addr constant [12 x i8] c"Copy failed\00", align 1
@.str.8 = private unnamed_addr constant [25 x i8] c"sun/nio/fs/UnixException\00", align 1
@.str.9 = private unnamed_addr constant [5 x i8] c"(I)V\00", align 1

; Function Attrs: nounwind uwtable
define internal void @throwUnixException(ptr noundef %0, i32 noundef %1) #0 {
  %3 = alloca ptr, align 8
  %4 = alloca i32, align 4
  %5 = alloca ptr, align 8
  store ptr %0, ptr %3, align 8
  store i32 %1, ptr %4, align 4
  %6 = load ptr, ptr %3, align 8
  %7 = load i32, ptr %4, align 4
  %8 = call ptr (ptr, ptr, ptr, ...) @JNU_NewObjectByName(ptr noundef %6, ptr noundef @.str.8, ptr noundef @.str.9, i32 noundef %7)
  store ptr %8, ptr %5, align 8
  %9 = load ptr, ptr %5, align 8
  %10 = icmp ne ptr %9, null
  br i1 %10, label %11, label %19

11:                                               ; preds = %2
  %12 = load ptr, ptr %3, align 8
  %13 = load ptr, ptr %12, align 8
  %14 = getelementptr inbounds %struct.JNINativeInterface_, ptr %13, i32 0, i32 13
  %15 = load ptr, ptr %14, align 8
  %16 = load ptr, ptr %3, align 8
  %17 = load ptr, ptr %5, align 8
  %18 = call i32 %15(ptr noundef %16, ptr noundef %17)
  br label %19

19:                                               ; preds = %11, %2
  ret void
}

; Function Attrs: nounwind uwtable
define i32 @Java_sun_nio_fs_LinuxNativeDispatcher_directCopy0(ptr noundef %0, ptr noundef %1, i32 noundef %2, i32 noundef %3, i64 noundef %4) #0 {
  %6 = alloca i32, align 4
  %7 = alloca ptr, align 8
  %8 = alloca ptr, align 8
  %9 = alloca i32, align 4
  %10 = alloca i32, align 4
  %11 = alloca i64, align 8
  %12 = alloca ptr, align 8
  %13 = alloca i64, align 8
  %14 = alloca i64, align 8
  store ptr %0, ptr %7, align 8
  store ptr %1, ptr %8, align 8
  store i32 %2, ptr %9, align 4
  store i32 %3, ptr %10, align 4
  store i64 %4, ptr %11, align 8
  %15 = load i64, ptr %11, align 8
  %16 = inttoptr i64 %15 to ptr
  store ptr %16, ptr %12, align 8
  %17 = load ptr, ptr %12, align 8
  %18 = icmp ne ptr %17, null
  %19 = select i1 %18, i32 1048576, i32 2147479552
  %20 = sext i32 %19 to i64
  store i64 %20, ptr %13, align 8
  %21 = load ptr, ptr @my_copy_file_range_func, align 8
  %22 = icmp ne ptr %21, null
  br i1 %22, label %23, label %70

23:                                               ; preds = %5
  br label %24

24:                                               ; preds = %62, %23
  br label %25

25:                                               ; preds = %24
  br label %26

26:                                               ; preds = %39, %25
  %27 = load ptr, ptr @my_copy_file_range_func, align 8
  %28 = load i32, ptr %10, align 4
  %29 = load i32, ptr %9, align 4
  %30 = load i64, ptr %13, align 8
  %31 = call i64 %27(i32 noundef %28, ptr noundef null, i32 noundef %29, ptr noundef null, i64 noundef %30, i32 noundef 0)
  store i64 %31, ptr %14, align 8
  br label %32

32:                                               ; preds = %26
  %33 = load i64, ptr %14, align 8
  %34 = icmp eq i64 %33, -1
  br i1 %34, label %35, label %39

35:                                               ; preds = %32
  %36 = call ptr @__errno_location() #6
  %37 = load i32, ptr %36, align 4
  %38 = icmp eq i32 %37, 4
  br label %39

39:                                               ; preds = %35, %32
  %40 = phi i1 [ false, %32 ], [ %38, %35 ]
  br i1 %40, label %26, label %41, !llvm.loop !8

41:                                               ; preds = %39
  br label %42

42:                                               ; preds = %41
  %43 = load i64, ptr %14, align 8
  %44 = icmp slt i64 %43, 0
  br i1 %44, label %45, label %52

45:                                               ; preds = %42
  %46 = call ptr @__errno_location() #6
  %47 = load i32, ptr %46, align 4
  switch i32 %47, label %49 [
    i32 22, label %48
    i32 38, label %48
    i32 18, label %48
  ]

48:                                               ; preds = %45, %45, %45
  br label %51

49:                                               ; preds = %45
  %50 = load ptr, ptr %7, align 8
  call void @JNU_ThrowIOExceptionWithLastError(ptr noundef %50, ptr noundef @.str.7)
  store i32 -5, ptr %6, align 4
  br label %123

51:                                               ; preds = %48
  br label %52

52:                                               ; preds = %51, %42
  %53 = load ptr, ptr %12, align 8
  %54 = icmp ne ptr %53, null
  br i1 %54, label %55, label %61

55:                                               ; preds = %52
  %56 = load ptr, ptr %12, align 8
  %57 = load volatile i32, ptr %56, align 4
  %58 = icmp ne i32 %57, 0
  br i1 %58, label %59, label %61

59:                                               ; preds = %55
  %60 = load ptr, ptr %7, align 8
  call void @throwUnixException(ptr noundef %60, i32 noundef 125)
  store i32 -5, ptr %6, align 4
  br label %123

61:                                               ; preds = %55, %52
  br label %62

62:                                               ; preds = %61
  %63 = load i64, ptr %14, align 8
  %64 = icmp sgt i64 %63, 0
  br i1 %64, label %24, label %65, !llvm.loop !9

65:                                               ; preds = %62
  %66 = load i64, ptr %14, align 8
  %67 = icmp eq i64 %66, 0
  br i1 %67, label %68, label %69

68:                                               ; preds = %65
  store i32 0, ptr %6, align 4
  br label %123

69:                                               ; preds = %65
  br label %70

70:                                               ; preds = %69, %5
  br label %71

71:                                               ; preds = %119, %70
  br label %72

72:                                               ; preds = %71
  br label %73

73:                                               ; preds = %85, %72
  %74 = load i32, ptr %9, align 4
  %75 = load i32, ptr %10, align 4
  %76 = load i64, ptr %13, align 8
  %77 = call i64 @sendfile64(i32 noundef %74, i32 noundef %75, ptr noundef null, i64 noundef %76) #5
  store i64 %77, ptr %14, align 8
  br label %78

78:                                               ; preds = %73
  %79 = load i64, ptr %14, align 8
  %80 = icmp eq i64 %79, -1
  br i1 %80, label %81, label %85

81:                                               ; preds = %78
  %82 = call ptr @__errno_location() #6
  %83 = load i32, ptr %82, align 4
  %84 = icmp eq i32 %83, 4
  br label %85

85:                                               ; preds = %81, %78
  %86 = phi i1 [ false, %78 ], [ %84, %81 ]
  br i1 %86, label %73, label %87, !llvm.loop !10

87:                                               ; preds = %85
  br label %88

88:                                               ; preds = %87
  %89 = load i64, ptr %14, align 8
  %90 = icmp slt i64 %89, 0
  br i1 %90, label %91, label %109

91:                                               ; preds = %88
  %92 = call ptr @__errno_location() #6
  %93 = load i32, ptr %92, align 4
  %94 = icmp eq i32 %93, 11
  br i1 %94, label %95, label %96

95:                                               ; preds = %91
  store i32 -2, ptr %6, align 4
  br label %123

96:                                               ; preds = %91
  %97 = call ptr @__errno_location() #6
  %98 = load i32, ptr %97, align 4
  %99 = icmp eq i32 %98, 22
  br i1 %99, label %104, label %100

100:                                              ; preds = %96
  %101 = call ptr @__errno_location() #6
  %102 = load i32, ptr %101, align 4
  %103 = icmp eq i32 %102, 38
  br i1 %103, label %104, label %105

104:                                              ; preds = %100, %96
  store i32 -6, ptr %6, align 4
  br label %123

105:                                              ; preds = %100
  %106 = load ptr, ptr %7, align 8
  %107 = call ptr @__errno_location() #6
  %108 = load i32, ptr %107, align 4
  call void @throwUnixException(ptr noundef %106, i32 noundef %108)
  store i32 -5, ptr %6, align 4
  br label %123

109:                                              ; preds = %88
  %110 = load ptr, ptr %12, align 8
  %111 = icmp ne ptr %110, null
  br i1 %111, label %112, label %118

112:                                              ; preds = %109
  %113 = load ptr, ptr %12, align 8
  %114 = load volatile i32, ptr %113, align 4
  %115 = icmp ne i32 %114, 0
  br i1 %115, label %116, label %118

116:                                              ; preds = %112
  %117 = load ptr, ptr %7, align 8
  call void @throwUnixException(ptr noundef %117, i32 noundef 125)
  store i32 -5, ptr %6, align 4
  br label %123

118:                                              ; preds = %112, %109
  br label %119

119:                                              ; preds = %118
  %120 = load i64, ptr %14, align 8
  %121 = icmp sgt i64 %120, 0
  br i1 %121, label %71, label %122, !llvm.loop !11

122:                                              ; preds = %119
  store i32 0, ptr %6, align 4
  br label %123

123:                                              ; preds = %122, %116, %105, %104, %95, %68, %59, %49
  %124 = load i32, ptr %6, align 4
  ret i32 %124
}