; Function Attrs: nounwind uwtable
define range(i32 -6, 1) i32 @Java_sun_nio_fs_LinuxNativeDispatcher_directCopy0(ptr noundef %0, ptr nocapture noundef readnone %1, i32 noundef %2, i32 noundef %3, i64 noundef %4) local_unnamed_addr #0 {
  %6 = inttoptr i64 %4 to ptr
  %.not = icmp eq i64 %4, 0
  %7 = select i1 %.not, i64 2147479552, i64 1048576
  %8 = load ptr, ptr @my_copy_file_range_func, align 8
  %.not29 = icmp eq ptr %8, null
  br i1 %.not29, label %.split44.us.thread66, label %.preheader

.preheader:                                       ; preds = %5
  br i1 %.not, label %.preheader.split.us, label %.preheader.split

.preheader.split.us:                              ; preds = %.preheader, %.preheader.split.us.backedge
  %9 = load ptr, ptr @my_copy_file_range_func, align 8
  %10 = tail call i64 %9(i32 noundef %3, ptr noundef null, i32 noundef %2, ptr noundef null, i64 noundef %7, i32 noundef 0) #5
  %11 = icmp eq i64 %10, -1
  br i1 %11, label %13, label %.critedge.us

.critedge.us:                                     ; preds = %.preheader.split.us
  %12 = icmp slt i64 %10, 0
  br i1 %12, label %.critedge.us..critedge.thread.us_crit_edge, label %18

.critedge.us..critedge.thread.us_crit_edge:       ; preds = %.critedge.us
  %.pre = tail call ptr @__errno_location() #6
  %.pr = load i32, ptr %.pre, align 4
  br label %.critedge.thread.us

13:                                               ; preds = %.preheader.split.us
  %14 = tail call ptr @__errno_location() #6
  %15 = load i32, ptr %14, align 4
  %16 = icmp eq i32 %15, 4
  br i1 %16, label %.preheader.split.us.backedge, label %.critedge.thread.us

.preheader.split.us.backedge:                     ; preds = %13, %18
  br label %.preheader.split.us, !llvm.loop !8

.critedge.thread.us:                              ; preds = %13, %.critedge.us..critedge.thread.us_crit_edge
  %17 = phi i32 [ %.pr, %.critedge.us..critedge.thread.us_crit_edge ], [ %15, %13 ]
  switch i32 %17, label %.split.us [
    i32 22, label %.split44.us.thread66
    i32 38, label %.split44.us.thread66
    i32 18, label %.split44.us.thread66
  ]

18:                                               ; preds = %.critedge.us
  %.not84 = icmp eq i64 %10, 0
  br i1 %.not84, label %throwUnixException.exit, label %.preheader.split.us.backedge

.preheader.split:                                 ; preds = %.preheader, %.preheader.split.backedge
  %19 = load ptr, ptr @my_copy_file_range_func, align 8
  %20 = tail call i64 %19(i32 noundef %3, ptr noundef null, i32 noundef %2, ptr noundef null, i64 noundef %7, i32 noundef 0) #5
  %21 = icmp eq i64 %20, -1
  br i1 %21, label %22, label %.critedge

22:                                               ; preds = %.preheader.split
  %23 = tail call ptr @__errno_location() #6
  %24 = load i32, ptr %23, align 4
  %25 = icmp eq i32 %24, 4
  br i1 %25, label %.preheader.split.backedge, label %.critedge.thread

.preheader.split.backedge:                        ; preds = %22, %37
  br label %.preheader.split, !llvm.loop !8

.critedge:                                        ; preds = %.preheader.split
  %26 = icmp slt i64 %20, 0
  br i1 %26, label %.critedge..critedge.thread_crit_edge, label %28

.critedge..critedge.thread_crit_edge:             ; preds = %.critedge
  %.pre62 = tail call ptr @__errno_location() #6
  %.pr64 = load i32, ptr %.pre62, align 4
  br label %.critedge.thread

.critedge.thread:                                 ; preds = %22, %.critedge..critedge.thread_crit_edge
  %27 = phi i32 [ %.pr64, %.critedge..critedge.thread_crit_edge ], [ %24, %22 ]
  switch i32 %27, label %.split.us [
    i32 22, label %28
    i32 38, label %28
    i32 18, label %28
  ]

.split.us:                                        ; preds = %.critedge.thread, %.critedge.thread.us
  tail call void @JNU_ThrowIOExceptionWithLastError(ptr noundef %0, ptr noundef nonnull @.str.7) #5
  br label %throwUnixException.exit

28:                                               ; preds = %.critedge.thread, %.critedge.thread, %.critedge.thread, %.critedge
  %29 = load volatile i32, ptr %6, align 4
  %.not30 = icmp eq i32 %29, 0
  br i1 %.not30, label %37, label %30

30:                                               ; preds = %28
  %31 = tail call ptr (ptr, ptr, ptr, ...) @JNU_NewObjectByName(ptr noundef %0, ptr noundef nonnull @.str.8, ptr noundef nonnull @.str.9, i32 noundef 125) #5
  %.not.i = icmp eq ptr %31, null
  br i1 %.not.i, label %throwUnixException.exit, label %32

32:                                               ; preds = %30
  %33 = load ptr, ptr %0, align 8
  %34 = getelementptr inbounds i8, ptr %33, i64 104
  %35 = load ptr, ptr %34, align 8
  %36 = tail call i32 %35(ptr noundef nonnull %0, ptr noundef nonnull %31) #5
  br label %throwUnixException.exit

37:                                               ; preds = %28
  %38 = icmp sgt i64 %20, 0
  br i1 %38, label %.preheader.split.backedge, label %.split44.us

.split44.us:                                      ; preds = %37
  %39 = icmp eq i64 %20, 0
  br i1 %39, label %throwUnixException.exit, label %.split44.us.thread66

.split44.us.thread66:                             ; preds = %.critedge.thread.us, %.critedge.thread.us, %.critedge.thread.us, %.split44.us, %5
  br i1 %.not, label %.split45.us, label %.split45

.split45.us:                                      ; preds = %.split44.us.thread66, %.split45.us.backedge
  %40 = tail call i64 @sendfile64(i32 noundef %2, i32 noundef %3, ptr noundef null, i64 noundef %7) #5
  %41 = icmp eq i64 %40, -1
  br i1 %41, label %44, label %.critedge2.us

.critedge2.us:                                    ; preds = %.split45.us
  %42 = icmp slt i64 %40, 0
  br i1 %42, label %.critedge2.thread, label %43

43:                                               ; preds = %.critedge2.us
  %.not32.us = icmp eq i64 %40, 0
  br i1 %.not32.us, label %throwUnixException.exit, label %.split45.us.backedge

44:                                               ; preds = %.split45.us
  %45 = tail call ptr @__errno_location() #6
  %46 = load i32, ptr %45, align 4
  %47 = icmp eq i32 %46, 4
  br i1 %47, label %.split45.us.backedge, label %.critedge2.thread

.split45.us.backedge:                             ; preds = %44, %43
  br label %.split45.us, !llvm.loop !9

.split45:                                         ; preds = %.split44.us.thread66, %.split45.backedge
  %48 = tail call i64 @sendfile64(i32 noundef %2, i32 noundef %3, ptr noundef null, i64 noundef %7) #5
  %49 = icmp eq i64 %48, -1
  br i1 %49, label %50, label %.critedge2

50:                                               ; preds = %.split45
  %51 = tail call ptr @__errno_location() #6
  %52 = load i32, ptr %51, align 4
  %53 = icmp eq i32 %52, 4
  br i1 %53, label %.split45.backedge, label %.critedge2.thread

.split45.backedge:                                ; preds = %50, %74
  br label %.split45, !llvm.loop !9

.critedge2:                                       ; preds = %.split45
  %54 = icmp slt i64 %48, 0
  br i1 %54, label %.critedge2.thread, label %65

.critedge2.thread:                                ; preds = %.critedge2, %50, %.critedge2.us, %44
  %55 = tail call ptr @__errno_location() #6
  %56 = load i32, ptr %55, align 4
  switch i32 %56, label %58 [
    i32 11, label %throwUnixException.exit
    i32 22, label %57
    i32 38, label %57
  ]

57:                                               ; preds = %.critedge2.thread, %.critedge2.thread
  br label %throwUnixException.exit

58:                                               ; preds = %.critedge2.thread
  %59 = tail call ptr (ptr, ptr, ptr, ...) @JNU_NewObjectByName(ptr noundef %0, ptr noundef nonnull @.str.8, ptr noundef nonnull @.str.9, i32 noundef %56) #5
  %.not.i33 = icmp eq ptr %59, null
  br i1 %.not.i33, label %throwUnixException.exit, label %60

60:                                               ; preds = %58
  %61 = load ptr, ptr %0, align 8
  %62 = getelementptr inbounds i8, ptr %61, i64 104
  %63 = load ptr, ptr %62, align 8
  %64 = tail call i32 %63(ptr noundef nonnull %0, ptr noundef nonnull %59) #5
  br label %throwUnixException.exit

65:                                               ; preds = %.critedge2
  %66 = load volatile i32, ptr %6, align 4
  %.not31 = icmp eq i32 %66, 0
  br i1 %.not31, label %74, label %67

67:                                               ; preds = %65
  %68 = tail call ptr (ptr, ptr, ptr, ...) @JNU_NewObjectByName(ptr noundef %0, ptr noundef nonnull @.str.8, ptr noundef nonnull @.str.9, i32 noundef 125) #5
  %.not.i35 = icmp eq ptr %68, null
  br i1 %.not.i35, label %throwUnixException.exit, label %69

69:                                               ; preds = %67
  %70 = load ptr, ptr %0, align 8
  %71 = getelementptr inbounds i8, ptr %70, i64 104
  %72 = load ptr, ptr %71, align 8
  %73 = tail call i32 %72(ptr noundef nonnull %0, ptr noundef nonnull %68) #5
  br label %throwUnixException.exit

74:                                               ; preds = %65
  %.not32 = icmp eq i64 %48, 0
  br i1 %.not32, label %throwUnixException.exit, label %.split45.backedge

throwUnixException.exit:                          ; preds = %18, %74, %43, %69, %67, %60, %58, %32, %30, %.critedge2.thread, %.split44.us, %57, %.split.us
  %.0 = phi i32 [ -5, %.split.us ], [ -6, %57 ], [ 0, %.split44.us ], [ -2, %.critedge2.thread ], [ -5, %30 ], [ -5, %32 ], [ -5, %58 ], [ -5, %60 ], [ -5, %67 ], [ -5, %69 ], [ 0, %43 ], [ 0, %74 ], [ 0, %18 ]
  ret i32 %.0
}